
sim/build/test_rv32im.elf:     file format elf32-littleriscv


Disassembly of section .text:

80000000 <_start>:
80000000:	04c000ef          	jal	8000004c <main>
80000004:	05d00893          	li	a7,93
80000008:	00000513          	li	a0,0
8000000c:	00000073          	ecall

80000010 <call_target>:
80000010:	fe010113          	addi	sp,sp,-32
80000014:	00112e23          	sw	ra,28(sp)
80000018:	00812c23          	sw	s0,24(sp)
8000001c:	02010413          	addi	s0,sp,32
80000020:	fea42623          	sw	a0,-20(s0)
80000024:	feb42423          	sw	a1,-24(s0)
80000028:	fec42703          	lw	a4,-20(s0)
8000002c:	fe842783          	lw	a5,-24(s0)
80000030:	40f707b3          	sub	a5,a4,a5
80000034:	02a78793          	addi	a5,a5,42
80000038:	00078513          	mv	a0,a5
8000003c:	01c12083          	lw	ra,28(sp)
80000040:	01812403          	lw	s0,24(sp)
80000044:	02010113          	addi	sp,sp,32
80000048:	00008067          	ret

8000004c <main>:
8000004c:	f1010113          	addi	sp,sp,-240
80000050:	0e112623          	sw	ra,236(sp)
80000054:	0e812423          	sw	s0,232(sp)
80000058:	0f212223          	sw	s2,228(sp)
8000005c:	0f312023          	sw	s3,224(sp)
80000060:	0d412e23          	sw	s4,220(sp)
80000064:	0d512c23          	sw	s5,216(sp)
80000068:	0d612a23          	sw	s6,212(sp)
8000006c:	0d712823          	sw	s7,208(sp)
80000070:	0f010413          	addi	s0,sp,240
80000074:	123457b7          	lui	a5,0x12345
80000078:	67878793          	addi	a5,a5,1656 # 12345678 <_start-0x6dcba988>
8000007c:	fcf42a23          	sw	a5,-44(s0)
80000080:	fffe87b7          	lui	a5,0xfffe8
80000084:	e3378793          	addi	a5,a5,-461 # fffe7e33 <sink_i64+0x7ffe7953>
80000088:	fcf42823          	sw	a5,-48(s0)
8000008c:	fd442703          	lw	a4,-44(s0)
80000090:	fd042783          	lw	a5,-48(s0)
80000094:	00f707b3          	add	a5,a4,a5
80000098:	fcf42e23          	sw	a5,-36(s0)
8000009c:	fd442703          	lw	a4,-44(s0)
800000a0:	fd042783          	lw	a5,-48(s0)
800000a4:	40f707b3          	sub	a5,a4,a5
800000a8:	fcf42e23          	sw	a5,-36(s0)
800000ac:	fd442703          	lw	a4,-44(s0)
800000b0:	fd042783          	lw	a5,-48(s0)
800000b4:	00f777b3          	and	a5,a4,a5
800000b8:	fcf42e23          	sw	a5,-36(s0)
800000bc:	fd442703          	lw	a4,-44(s0)
800000c0:	fd042783          	lw	a5,-48(s0)
800000c4:	00f767b3          	or	a5,a4,a5
800000c8:	fcf42e23          	sw	a5,-36(s0)
800000cc:	fd442703          	lw	a4,-44(s0)
800000d0:	fd042783          	lw	a5,-48(s0)
800000d4:	00f747b3          	xor	a5,a4,a5
800000d8:	fcf42e23          	sw	a5,-36(s0)
800000dc:	fd442783          	lw	a5,-44(s0)
800000e0:	00379793          	slli	a5,a5,0x3
800000e4:	fcf42e23          	sw	a5,-36(s0)
800000e8:	fd442783          	lw	a5,-44(s0)
800000ec:	0037d793          	srli	a5,a5,0x3
800000f0:	fcf42e23          	sw	a5,-36(s0)
800000f4:	fd442783          	lw	a5,-44(s0)
800000f8:	4037d793          	srai	a5,a5,0x3
800000fc:	fcf42e23          	sw	a5,-36(s0)
80000100:	fd442703          	lw	a4,-44(s0)
80000104:	fd042783          	lw	a5,-48(s0)
80000108:	00f727b3          	slt	a5,a4,a5
8000010c:	0ff7f793          	zext.b	a5,a5
80000110:	fcf42e23          	sw	a5,-36(s0)
80000114:	fd442703          	lw	a4,-44(s0)
80000118:	fd042783          	lw	a5,-48(s0)
8000011c:	00f737b3          	sltu	a5,a4,a5
80000120:	0ff7f793          	zext.b	a5,a5
80000124:	fcf42e23          	sw	a5,-36(s0)
80000128:	000037b7          	lui	a5,0x3
8000012c:	03978793          	addi	a5,a5,57 # 3039 <_start-0x7fffcfc7>
80000130:	fcf42623          	sw	a5,-52(s0)
80000134:	ffff37b7          	lui	a5,0xffff3
80000138:	bcf78793          	addi	a5,a5,-1073 # ffff2bcf <sink_i64+0x7fff26ef>
8000013c:	fcf42423          	sw	a5,-56(s0)
80000140:	fcc42703          	lw	a4,-52(s0)
80000144:	fc842783          	lw	a5,-56(s0)
80000148:	02f707b3          	mul	a5,a4,a5
8000014c:	fcf42223          	sw	a5,-60(s0)
80000150:	fcc42703          	lw	a4,-52(s0)
80000154:	000037b7          	lui	a5,0x3
80000158:	03978793          	addi	a5,a5,57 # 3039 <_start-0x7fffcfc7>
8000015c:	02f707b3          	mul	a5,a4,a5
80000160:	fcf42023          	sw	a5,-64(s0)
80000164:	fc842703          	lw	a4,-56(s0)
80000168:	fcc42783          	lw	a5,-52(s0)
8000016c:	02f747b3          	div	a5,a4,a5
80000170:	faf42e23          	sw	a5,-68(s0)
80000174:	fc842703          	lw	a4,-56(s0)
80000178:	fcc42783          	lw	a5,-52(s0)
8000017c:	02f757b3          	divu	a5,a4,a5
80000180:	faf42c23          	sw	a5,-72(s0)
80000184:	fc842703          	lw	a4,-56(s0)
80000188:	fcc42783          	lw	a5,-52(s0)
8000018c:	02f767b3          	rem	a5,a4,a5
80000190:	faf42a23          	sw	a5,-76(s0)
80000194:	fc842703          	lw	a4,-56(s0)
80000198:	fcc42783          	lw	a5,-52(s0)
8000019c:	02f777b3          	remu	a5,a4,a5
800001a0:	faf42823          	sw	a5,-80(s0)
800001a4:	fd442783          	lw	a5,-44(s0)
800001a8:	06478793          	addi	a5,a5,100
800001ac:	fcf42e23          	sw	a5,-36(s0)
800001b0:	fd442703          	lw	a4,-44(s0)
800001b4:	000057b7          	lui	a5,0x5
800001b8:	55578793          	addi	a5,a5,1365 # 5555 <_start-0x7fffaaab>
800001bc:	00f777b3          	and	a5,a4,a5
800001c0:	fcf42e23          	sw	a5,-36(s0)
800001c4:	fd442703          	lw	a4,-44(s0)
800001c8:	0000b7b7          	lui	a5,0xb
800001cc:	aaa78793          	addi	a5,a5,-1366 # aaaa <_start-0x7fff5556>
800001d0:	00f767b3          	or	a5,a4,a5
800001d4:	fcf42e23          	sw	a5,-36(s0)
800001d8:	fd442783          	lw	a5,-44(s0)
800001dc:	0ff7c793          	xori	a5,a5,255
800001e0:	fcf42e23          	sw	a5,-36(s0)
800001e4:	fd442703          	lw	a4,-44(s0)
800001e8:	000317b7          	lui	a5,0x31
800001ec:	d4078793          	addi	a5,a5,-704 # 30d40 <_start-0x7ffcf2c0>
800001f0:	00f727b3          	slt	a5,a4,a5
800001f4:	0ff7f793          	zext.b	a5,a5
800001f8:	fcf42e23          	sw	a5,-36(s0)
800001fc:	fd442703          	lw	a4,-44(s0)
80000200:	000317b7          	lui	a5,0x31
80000204:	d4078793          	addi	a5,a5,-704 # 30d40 <_start-0x7ffcf2c0>
80000208:	00f737b3          	sltu	a5,a4,a5
8000020c:	0ff7f793          	zext.b	a5,a5
80000210:	fcf42e23          	sw	a5,-36(s0)
80000214:	fd442783          	lw	a5,-44(s0)
80000218:	00579793          	slli	a5,a5,0x5
8000021c:	fcf42e23          	sw	a5,-36(s0)
80000220:	fd442783          	lw	a5,-44(s0)
80000224:	0057d793          	srli	a5,a5,0x5
80000228:	fcf42e23          	sw	a5,-36(s0)
8000022c:	fd442783          	lw	a5,-44(s0)
80000230:	4077d793          	srai	a5,a5,0x7
80000234:	fcf42e23          	sw	a5,-36(s0)
80000238:	fdc42783          	lw	a5,-36(s0)
8000023c:	0ff7f793          	zext.b	a5,a5
80000240:	f8f40623          	sb	a5,-116(s0)
80000244:	fdc42783          	lw	a5,-36(s0)
80000248:	01079793          	slli	a5,a5,0x10
8000024c:	0107d793          	srli	a5,a5,0x10
80000250:	f6f41623          	sh	a5,-148(s0)
80000254:	fdc42783          	lw	a5,-36(s0)
80000258:	f2f42623          	sw	a5,-212(s0)
8000025c:	f8c44783          	lbu	a5,-116(s0)
80000260:	0ff7f793          	zext.b	a5,a5
80000264:	01879793          	slli	a5,a5,0x18
80000268:	4187d793          	srai	a5,a5,0x18
8000026c:	fcf42e23          	sw	a5,-36(s0)
80000270:	f6c45783          	lhu	a5,-148(s0)
80000274:	01079793          	slli	a5,a5,0x10
80000278:	0107d793          	srli	a5,a5,0x10
8000027c:	01079793          	slli	a5,a5,0x10
80000280:	4107d793          	srai	a5,a5,0x10
80000284:	fcf42e23          	sw	a5,-36(s0)
80000288:	f2c42783          	lw	a5,-212(s0)
8000028c:	fcf42e23          	sw	a5,-36(s0)
80000290:	f8c44783          	lbu	a5,-116(s0)
80000294:	0ff7f793          	zext.b	a5,a5
80000298:	fcf42e23          	sw	a5,-36(s0)
8000029c:	f6c45783          	lhu	a5,-148(s0)
800002a0:	01079793          	slli	a5,a5,0x10
800002a4:	0107d793          	srli	a5,a5,0x10
800002a8:	fcf42e23          	sw	a5,-36(s0)
800002ac:	fd442703          	lw	a4,-44(s0)
800002b0:	fd042783          	lw	a5,-48(s0)
800002b4:	00f71863          	bne	a4,a5,800002c4 <main+0x278>
800002b8:	fdc42783          	lw	a5,-36(s0)
800002bc:	00178793          	addi	a5,a5,1
800002c0:	fcf42e23          	sw	a5,-36(s0)
800002c4:	fd442703          	lw	a4,-44(s0)
800002c8:	fd042783          	lw	a5,-48(s0)
800002cc:	00f70863          	beq	a4,a5,800002dc <main+0x290>
800002d0:	fdc42783          	lw	a5,-36(s0)
800002d4:	fff78793          	addi	a5,a5,-1
800002d8:	fcf42e23          	sw	a5,-36(s0)
800002dc:	fd442703          	lw	a4,-44(s0)
800002e0:	fd042783          	lw	a5,-48(s0)
800002e4:	00f75863          	bge	a4,a5,800002f4 <main+0x2a8>
800002e8:	fdc42783          	lw	a5,-36(s0)
800002ec:	00278793          	addi	a5,a5,2
800002f0:	fcf42e23          	sw	a5,-36(s0)
800002f4:	fd442703          	lw	a4,-44(s0)
800002f8:	fd042783          	lw	a5,-48(s0)
800002fc:	00f74863          	blt	a4,a5,8000030c <main+0x2c0>
80000300:	fdc42783          	lw	a5,-36(s0)
80000304:	ffe78793          	addi	a5,a5,-2
80000308:	fcf42e23          	sw	a5,-36(s0)
8000030c:	fd442703          	lw	a4,-44(s0)
80000310:	fd042783          	lw	a5,-48(s0)
80000314:	00f77863          	bgeu	a4,a5,80000324 <main+0x2d8>
80000318:	fdc42783          	lw	a5,-36(s0)
8000031c:	00378793          	addi	a5,a5,3
80000320:	fcf42e23          	sw	a5,-36(s0)
80000324:	fd442703          	lw	a4,-44(s0)
80000328:	fd042783          	lw	a5,-48(s0)
8000032c:	00f76863          	bltu	a4,a5,8000033c <main+0x2f0>
80000330:	fdc42783          	lw	a5,-36(s0)
80000334:	ffd78793          	addi	a5,a5,-3
80000338:	fcf42e23          	sw	a5,-36(s0)
8000033c:	fc042c23          	sw	zero,-40(s0)
80000340:	0200006f          	j	80000360 <main+0x314>
80000344:	fdc42703          	lw	a4,-36(s0)
80000348:	fd842783          	lw	a5,-40(s0)
8000034c:	00f707b3          	add	a5,a4,a5
80000350:	fcf42e23          	sw	a5,-36(s0)
80000354:	fd842783          	lw	a5,-40(s0)
80000358:	00178793          	addi	a5,a5,1
8000035c:	fcf42c23          	sw	a5,-40(s0)
80000360:	fd842703          	lw	a4,-40(s0)
80000364:	00700793          	li	a5,7
80000368:	fce7dee3          	bge	a5,a4,80000344 <main+0x2f8>
8000036c:	fd042583          	lw	a1,-48(s0)
80000370:	fd442503          	lw	a0,-44(s0)
80000374:	c9dff0ef          	jal	80000010 <call_target>
80000378:	faa42623          	sw	a0,-84(s0)
8000037c:	800007b7          	lui	a5,0x80000
80000380:	01078793          	addi	a5,a5,16 # 80000010 <call_target>
80000384:	faf42423          	sw	a5,-88(s0)
80000388:	fa842783          	lw	a5,-88(s0)
8000038c:	00700593          	li	a1,7
80000390:	00500513          	li	a0,5
80000394:	000780e7          	jalr	a5
80000398:	00050713          	mv	a4,a0
8000039c:	fac42783          	lw	a5,-84(s0)
800003a0:	00e787b3          	add	a5,a5,a4
800003a4:	faf42623          	sw	a5,-84(s0)
800003a8:	fedc17b7          	lui	a5,0xfedc1
800003ac:	23478793          	addi	a5,a5,564 # fedc1234 <sink_i64+0x7edc0d54>
800003b0:	faf42223          	sw	a5,-92(s0)
800003b4:	fa442783          	lw	a5,-92(s0)
800003b8:	06478793          	addi	a5,a5,100
800003bc:	faf42023          	sw	a5,-96(s0)
800003c0:	fd442783          	lw	a5,-44(s0)
800003c4:	fff7c793          	not	a5,a5
800003c8:	fcf42e23          	sw	a5,-36(s0)
800003cc:	fd042703          	lw	a4,-48(s0)
800003d0:	fd442783          	lw	a5,-44(s0)
800003d4:	00f747b3          	xor	a5,a4,a5
800003d8:	fcf42e23          	sw	a5,-36(s0)
800003dc:	deadc7b7          	lui	a5,0xdeadc
800003e0:	eef78793          	addi	a5,a5,-273 # deadbeef <sink_i64+0x5eadba0f>
800003e4:	f2f42023          	sw	a5,-224(s0)
800003e8:	f1c40793          	addi	a5,s0,-228
800003ec:	00478793          	addi	a5,a5,4
800003f0:	f8f42e23          	sw	a5,-100(s0)
800003f4:	f9c42783          	lw	a5,-100(s0)
800003f8:	0007a783          	lw	a5,0(a5)
800003fc:	fcf42e23          	sw	a5,-36(s0)
80000400:	fdc42703          	lw	a4,-36(s0)
80000404:	fc442783          	lw	a5,-60(s0)
80000408:	00f70733          	add	a4,a4,a5
8000040c:	fbc42783          	lw	a5,-68(s0)
80000410:	00f70733          	add	a4,a4,a5
80000414:	fb442783          	lw	a5,-76(s0)
80000418:	00f70733          	add	a4,a4,a5
8000041c:	800007b7          	lui	a5,0x80000
80000420:	4ce7ac23          	sw	a4,1240(a5) # 800004d8 <sink_i32>
80000424:	fa042703          	lw	a4,-96(s0)
80000428:	fc042783          	lw	a5,-64(s0)
8000042c:	00f70733          	add	a4,a4,a5
80000430:	fb842783          	lw	a5,-72(s0)
80000434:	00f70733          	add	a4,a4,a5
80000438:	fb042783          	lw	a5,-80(s0)
8000043c:	00f70733          	add	a4,a4,a5
80000440:	800007b7          	lui	a5,0x80000
80000444:	4ce7ae23          	sw	a4,1244(a5) # 800004dc <sink_u32>
80000448:	fcc42783          	lw	a5,-52(s0)
8000044c:	00078a13          	mv	s4,a5
80000450:	41f7d793          	srai	a5,a5,0x1f
80000454:	00078a93          	mv	s5,a5
80000458:	fc842783          	lw	a5,-56(s0)
8000045c:	00078913          	mv	s2,a5
80000460:	41f7d793          	srai	a5,a5,0x1f
80000464:	00078993          	mv	s3,a5
80000468:	032a8733          	mul	a4,s5,s2
8000046c:	034987b3          	mul	a5,s3,s4
80000470:	00f707b3          	add	a5,a4,a5
80000474:	032a0733          	mul	a4,s4,s2
80000478:	032a3bb3          	mulhu	s7,s4,s2
8000047c:	00070b13          	mv	s6,a4
80000480:	017787b3          	add	a5,a5,s7
80000484:	00078b93          	mv	s7,a5
80000488:	800007b7          	lui	a5,0x80000
8000048c:	4f67a023          	sw	s6,1248(a5) # 800004e0 <sink_i64>
80000490:	4f77a223          	sw	s7,1252(a5)
80000494:	800007b7          	lui	a5,0x80000
80000498:	4d87a783          	lw	a5,1240(a5) # 800004d8 <sink_i32>
8000049c:	80000737          	lui	a4,0x80000
800004a0:	4dc72703          	lw	a4,1244(a4) # 800004dc <sink_u32>
800004a4:	00e7c7b3          	xor	a5,a5,a4
800004a8:	00078513          	mv	a0,a5
800004ac:	0ec12083          	lw	ra,236(sp)
800004b0:	0e812403          	lw	s0,232(sp)
800004b4:	0e412903          	lw	s2,228(sp)
800004b8:	0e012983          	lw	s3,224(sp)
800004bc:	0dc12a03          	lw	s4,220(sp)
800004c0:	0d812a83          	lw	s5,216(sp)
800004c4:	0d412b03          	lw	s6,212(sp)
800004c8:	0d012b83          	lw	s7,208(sp)
800004cc:	0f010113          	addi	sp,sp,240
800004d0:	00008067          	ret
