
sim/build/test_rv32im_v2.elf:     file format elf32-littleriscv


Disassembly of section .text:

80000000 <_start>:
80000000:	0a8000ef          	jal	800000a8 <main>
80000004:	05d00893          	li	a7,93
80000008:	00000513          	li	a0,0
8000000c:	00000073          	ecall

80000010 <call_target>:
80000010:	fd010113          	addi	sp,sp,-48
80000014:	02112623          	sw	ra,44(sp)
80000018:	02812423          	sw	s0,40(sp)
8000001c:	03010413          	addi	s0,sp,48
80000020:	fca42e23          	sw	a0,-36(s0)
80000024:	fcb42c23          	sw	a1,-40(s0)
80000028:	fdc42703          	lw	a4,-36(s0)
8000002c:	fd842783          	lw	a5,-40(s0)
80000030:	00f707b3          	add	a5,a4,a5
80000034:	fef42623          	sw	a5,-20(s0)
80000038:	fec42783          	lw	a5,-20(s0)
8000003c:	00379713          	slli	a4,a5,0x3
80000040:	fec42783          	lw	a5,-20(s0)
80000044:	4027d793          	srai	a5,a5,0x2
80000048:	00f747b3          	xor	a5,a4,a5
8000004c:	fef42623          	sw	a5,-20(s0)
80000050:	fec42783          	lw	a5,-20(s0)
80000054:	02a78793          	addi	a5,a5,42
80000058:	00078513          	mv	a0,a5
8000005c:	02c12083          	lw	ra,44(sp)
80000060:	02812403          	lw	s0,40(sp)
80000064:	03010113          	addi	sp,sp,48
80000068:	00008067          	ret

8000006c <call_target2>:
8000006c:	fe010113          	addi	sp,sp,-32
80000070:	00112e23          	sw	ra,28(sp)
80000074:	00812c23          	sw	s0,24(sp)
80000078:	02010413          	addi	s0,sp,32
8000007c:	fea42623          	sw	a0,-20(s0)
80000080:	fec42703          	lw	a4,-20(s0)
80000084:	00070793          	mv	a5,a4
80000088:	00179793          	slli	a5,a5,0x1
8000008c:	00e787b3          	add	a5,a5,a4
80000090:	ff978793          	addi	a5,a5,-7
80000094:	00078513          	mv	a0,a5
80000098:	01c12083          	lw	ra,28(sp)
8000009c:	01812403          	lw	s0,24(sp)
800000a0:	02010113          	addi	sp,sp,32
800000a4:	00008067          	ret

800000a8 <main>:
800000a8:	e5010113          	addi	sp,sp,-432
800000ac:	1a112623          	sw	ra,428(sp)
800000b0:	1a812423          	sw	s0,424(sp)
800000b4:	1a912223          	sw	s1,420(sp)
800000b8:	1b212023          	sw	s2,416(sp)
800000bc:	19312e23          	sw	s3,412(sp)
800000c0:	19412c23          	sw	s4,408(sp)
800000c4:	19512a23          	sw	s5,404(sp)
800000c8:	19612823          	sw	s6,400(sp)
800000cc:	19712623          	sw	s7,396(sp)
800000d0:	19812423          	sw	s8,392(sp)
800000d4:	19912223          	sw	s9,388(sp)
800000d8:	1b010413          	addi	s0,sp,432
800000dc:	123452b7          	lui	t0,0x12345
800000e0:	67828293          	addi	t0,t0,1656 # 12345678 <_start-0x6dcba988>
800000e4:	f8542e23          	sw	t0,-100(s0)
800000e8:	fffe82b7          	lui	t0,0xfffe8
800000ec:	e3328293          	addi	t0,t0,-461 # fffe7e33 <sink_i64+0x7ffe6e2b>
800000f0:	f8542c23          	sw	t0,-104(s0)
800000f4:	f8042a23          	sw	zero,-108(s0)
800000f8:	f9c42483          	lw	s1,-100(s0)
800000fc:	f9842283          	lw	t0,-104(s0)
80000100:	005482b3          	add	t0,s1,t0
80000104:	f8542a23          	sw	t0,-108(s0)
80000108:	f9c42483          	lw	s1,-100(s0)
8000010c:	f9842283          	lw	t0,-104(s0)
80000110:	405482b3          	sub	t0,s1,t0
80000114:	f8542a23          	sw	t0,-108(s0)
80000118:	f9c42483          	lw	s1,-100(s0)
8000011c:	f9842283          	lw	t0,-104(s0)
80000120:	0054f2b3          	and	t0,s1,t0
80000124:	f8542a23          	sw	t0,-108(s0)
80000128:	f9c42483          	lw	s1,-100(s0)
8000012c:	f9842283          	lw	t0,-104(s0)
80000130:	0054e2b3          	or	t0,s1,t0
80000134:	f8542a23          	sw	t0,-108(s0)
80000138:	f9c42483          	lw	s1,-100(s0)
8000013c:	f9842283          	lw	t0,-104(s0)
80000140:	0054c2b3          	xor	t0,s1,t0
80000144:	f8542a23          	sw	t0,-108(s0)
80000148:	f9c42283          	lw	t0,-100(s0)
8000014c:	00329293          	slli	t0,t0,0x3
80000150:	f8542a23          	sw	t0,-108(s0)
80000154:	f9c42283          	lw	t0,-100(s0)
80000158:	0032d293          	srli	t0,t0,0x3
8000015c:	f8542a23          	sw	t0,-108(s0)
80000160:	f9c42283          	lw	t0,-100(s0)
80000164:	4032d293          	srai	t0,t0,0x3
80000168:	f8542a23          	sw	t0,-108(s0)
8000016c:	f9c42483          	lw	s1,-100(s0)
80000170:	f9842283          	lw	t0,-104(s0)
80000174:	0054a2b3          	slt	t0,s1,t0
80000178:	0ff2f293          	zext.b	t0,t0
8000017c:	f8542a23          	sw	t0,-108(s0)
80000180:	f9c42283          	lw	t0,-100(s0)
80000184:	00028493          	mv	s1,t0
80000188:	f9842283          	lw	t0,-104(s0)
8000018c:	0054b2b3          	sltu	t0,s1,t0
80000190:	0ff2f293          	zext.b	t0,t0
80000194:	f8542a23          	sw	t0,-108(s0)
80000198:	000032b7          	lui	t0,0x3
8000019c:	03928293          	addi	t0,t0,57 # 3039 <_start-0x7fffcfc7>
800001a0:	f8542823          	sw	t0,-112(s0)
800001a4:	ffff32b7          	lui	t0,0xffff3
800001a8:	bcf28293          	addi	t0,t0,-1073 # ffff2bcf <sink_i64+0x7fff1bc7>
800001ac:	f8542623          	sw	t0,-116(s0)
800001b0:	f9042483          	lw	s1,-112(s0)
800001b4:	f8c42283          	lw	t0,-116(s0)
800001b8:	025482b3          	mul	t0,s1,t0
800001bc:	f8542423          	sw	t0,-120(s0)
800001c0:	f9042283          	lw	t0,-112(s0)
800001c4:	00028313          	mv	t1,t0
800001c8:	41f2d293          	srai	t0,t0,0x1f
800001cc:	00028393          	mv	t2,t0
800001d0:	f8c42283          	lw	t0,-116(s0)
800001d4:	00028813          	mv	a6,t0
800001d8:	41f2d293          	srai	t0,t0,0x1f
800001dc:	00028893          	mv	a7,t0
800001e0:	030384b3          	mul	s1,t2,a6
800001e4:	026882b3          	mul	t0,a7,t1
800001e8:	005482b3          	add	t0,s1,t0
800001ec:	030304b3          	mul	s1,t1,a6
800001f0:	030335b3          	mulhu	a1,t1,a6
800001f4:	00048513          	mv	a0,s1
800001f8:	00b28833          	add	a6,t0,a1
800001fc:	00080593          	mv	a1,a6
80000200:	4005df13          	srai	t5,a1,0x0
80000204:	41f5df93          	srai	t6,a1,0x1f
80000208:	000f0593          	mv	a1,t5
8000020c:	f8b42223          	sw	a1,-124(s0)
80000210:	f9042583          	lw	a1,-112(s0)
80000214:	00058613          	mv	a2,a1
80000218:	00000693          	li	a3,0
8000021c:	f8c42583          	lw	a1,-116(s0)
80000220:	00058713          	mv	a4,a1
80000224:	00000793          	li	a5,0
80000228:	02e68533          	mul	a0,a3,a4
8000022c:	02c785b3          	mul	a1,a5,a2
80000230:	00b505b3          	add	a1,a0,a1
80000234:	02e60533          	mul	a0,a2,a4
80000238:	02e63eb3          	mulhu	t4,a2,a4
8000023c:	00050e13          	mv	t3,a0
80000240:	01d587b3          	add	a5,a1,t4
80000244:	00078e93          	mv	t4,a5
80000248:	000edc13          	srli	s8,t4,0x0
8000024c:	00000c93          	li	s9,0
80000250:	000c0793          	mv	a5,s8
80000254:	f8f42023          	sw	a5,-128(s0)
80000258:	f8c42703          	lw	a4,-116(s0)
8000025c:	f9042783          	lw	a5,-112(s0)
80000260:	02f747b3          	div	a5,a4,a5
80000264:	f6f42e23          	sw	a5,-132(s0)
80000268:	f8c42783          	lw	a5,-116(s0)
8000026c:	00078713          	mv	a4,a5
80000270:	f9042783          	lw	a5,-112(s0)
80000274:	02f757b3          	divu	a5,a4,a5
80000278:	f6f42c23          	sw	a5,-136(s0)
8000027c:	f8c42703          	lw	a4,-116(s0)
80000280:	f9042783          	lw	a5,-112(s0)
80000284:	02f767b3          	rem	a5,a4,a5
80000288:	f6f42a23          	sw	a5,-140(s0)
8000028c:	f8c42783          	lw	a5,-116(s0)
80000290:	00078713          	mv	a4,a5
80000294:	f9042783          	lw	a5,-112(s0)
80000298:	02f777b3          	remu	a5,a4,a5
8000029c:	f6f42823          	sw	a5,-144(s0)
800002a0:	00100793          	li	a5,1
800002a4:	fcf42623          	sw	a5,-52(s0)
800002a8:	04c0006f          	j	800002f4 <main+0x24c>
800002ac:	fcc42783          	lw	a5,-52(s0)
800002b0:	00378713          	addi	a4,a5,3
800002b4:	f9042783          	lw	a5,-112(s0)
800002b8:	02f707b3          	mul	a5,a4,a5
800002bc:	f8f42823          	sw	a5,-112(s0)
800002c0:	f8c42703          	lw	a4,-116(s0)
800002c4:	fcc42783          	lw	a5,-52(s0)
800002c8:	00178793          	addi	a5,a5,1
800002cc:	02f747b3          	div	a5,a4,a5
800002d0:	f8f42623          	sw	a5,-116(s0)
800002d4:	f8c42703          	lw	a4,-116(s0)
800002d8:	fcc42783          	lw	a5,-52(s0)
800002dc:	00778793          	addi	a5,a5,7
800002e0:	02f767b3          	rem	a5,a4,a5
800002e4:	f6f42a23          	sw	a5,-140(s0)
800002e8:	fcc42783          	lw	a5,-52(s0)
800002ec:	00178793          	addi	a5,a5,1
800002f0:	fcf42623          	sw	a5,-52(s0)
800002f4:	fcc42703          	lw	a4,-52(s0)
800002f8:	00500793          	li	a5,5
800002fc:	fae7d8e3          	bge	a5,a4,800002ac <main+0x204>
80000300:	f9c42783          	lw	a5,-100(s0)
80000304:	06478793          	addi	a5,a5,100
80000308:	f8f42a23          	sw	a5,-108(s0)
8000030c:	f9c42703          	lw	a4,-100(s0)
80000310:	000057b7          	lui	a5,0x5
80000314:	55578793          	addi	a5,a5,1365 # 5555 <_start-0x7fffaaab>
80000318:	00f777b3          	and	a5,a4,a5
8000031c:	f8f42a23          	sw	a5,-108(s0)
80000320:	f9c42703          	lw	a4,-100(s0)
80000324:	0000b7b7          	lui	a5,0xb
80000328:	aaa78793          	addi	a5,a5,-1366 # aaaa <_start-0x7fff5556>
8000032c:	00f767b3          	or	a5,a4,a5
80000330:	f8f42a23          	sw	a5,-108(s0)
80000334:	f9c42783          	lw	a5,-100(s0)
80000338:	0ff7c793          	xori	a5,a5,255
8000033c:	f8f42a23          	sw	a5,-108(s0)
80000340:	f9c42703          	lw	a4,-100(s0)
80000344:	000317b7          	lui	a5,0x31
80000348:	d4078793          	addi	a5,a5,-704 # 30d40 <_start-0x7ffcf2c0>
8000034c:	00f727b3          	slt	a5,a4,a5
80000350:	0ff7f793          	zext.b	a5,a5
80000354:	f8f42a23          	sw	a5,-108(s0)
80000358:	f9c42783          	lw	a5,-100(s0)
8000035c:	00078713          	mv	a4,a5
80000360:	000317b7          	lui	a5,0x31
80000364:	d4078793          	addi	a5,a5,-704 # 30d40 <_start-0x7ffcf2c0>
80000368:	00f737b3          	sltu	a5,a4,a5
8000036c:	0ff7f793          	zext.b	a5,a5
80000370:	f8f42a23          	sw	a5,-108(s0)
80000374:	f9c42783          	lw	a5,-100(s0)
80000378:	00579793          	slli	a5,a5,0x5
8000037c:	f8f42a23          	sw	a5,-108(s0)
80000380:	f9c42783          	lw	a5,-100(s0)
80000384:	0057d793          	srli	a5,a5,0x5
80000388:	f8f42a23          	sw	a5,-108(s0)
8000038c:	f9c42783          	lw	a5,-100(s0)
80000390:	4077d793          	srai	a5,a5,0x7
80000394:	f8f42a23          	sw	a5,-108(s0)
80000398:	f9442783          	lw	a5,-108(s0)
8000039c:	0ff7f793          	zext.b	a5,a5
800003a0:	f4f40823          	sb	a5,-176(s0)
800003a4:	f9442783          	lw	a5,-108(s0)
800003a8:	01079793          	slli	a5,a5,0x10
800003ac:	0107d793          	srli	a5,a5,0x10
800003b0:	f0f41823          	sh	a5,-240(s0)
800003b4:	f9442783          	lw	a5,-108(s0)
800003b8:	e8f42823          	sw	a5,-368(s0)
800003bc:	f5044783          	lbu	a5,-176(s0)
800003c0:	0ff7f793          	zext.b	a5,a5
800003c4:	01879793          	slli	a5,a5,0x18
800003c8:	4187d793          	srai	a5,a5,0x18
800003cc:	f8f42a23          	sw	a5,-108(s0)
800003d0:	f1045783          	lhu	a5,-240(s0)
800003d4:	01079793          	slli	a5,a5,0x10
800003d8:	0107d793          	srli	a5,a5,0x10
800003dc:	01079793          	slli	a5,a5,0x10
800003e0:	4107d793          	srai	a5,a5,0x10
800003e4:	f8f42a23          	sw	a5,-108(s0)
800003e8:	e9042783          	lw	a5,-368(s0)
800003ec:	f8f42a23          	sw	a5,-108(s0)
800003f0:	f5044783          	lbu	a5,-176(s0)
800003f4:	0ff7f793          	zext.b	a5,a5
800003f8:	f8f42a23          	sw	a5,-108(s0)
800003fc:	f1045783          	lhu	a5,-240(s0)
80000400:	01079793          	slli	a5,a5,0x10
80000404:	0107d793          	srli	a5,a5,0x10
80000408:	f8f42a23          	sw	a5,-108(s0)
8000040c:	a5a5a7b7          	lui	a5,0xa5a5a
80000410:	5a578793          	addi	a5,a5,1445 # a5a5a5a5 <sink_i64+0x25a5959d>
80000414:	e8f42a23          	sw	a5,-364(s0)
80000418:	e9442783          	lw	a5,-364(s0)
8000041c:	f8f42a23          	sw	a5,-108(s0)
80000420:	f9c42703          	lw	a4,-100(s0)
80000424:	f9842783          	lw	a5,-104(s0)
80000428:	00f71863          	bne	a4,a5,80000438 <main+0x390>
8000042c:	f9442783          	lw	a5,-108(s0)
80000430:	00178793          	addi	a5,a5,1
80000434:	f8f42a23          	sw	a5,-108(s0)
80000438:	f9c42703          	lw	a4,-100(s0)
8000043c:	f9842783          	lw	a5,-104(s0)
80000440:	00f70863          	beq	a4,a5,80000450 <main+0x3a8>
80000444:	f9442783          	lw	a5,-108(s0)
80000448:	fff78793          	addi	a5,a5,-1
8000044c:	f8f42a23          	sw	a5,-108(s0)
80000450:	f9c42703          	lw	a4,-100(s0)
80000454:	f9842783          	lw	a5,-104(s0)
80000458:	00f75863          	bge	a4,a5,80000468 <main+0x3c0>
8000045c:	f9442783          	lw	a5,-108(s0)
80000460:	00278793          	addi	a5,a5,2
80000464:	f8f42a23          	sw	a5,-108(s0)
80000468:	f9c42703          	lw	a4,-100(s0)
8000046c:	f9842783          	lw	a5,-104(s0)
80000470:	00f74863          	blt	a4,a5,80000480 <main+0x3d8>
80000474:	f9442783          	lw	a5,-108(s0)
80000478:	ffe78793          	addi	a5,a5,-2
8000047c:	f8f42a23          	sw	a5,-108(s0)
80000480:	f9c42783          	lw	a5,-100(s0)
80000484:	00078713          	mv	a4,a5
80000488:	f9842783          	lw	a5,-104(s0)
8000048c:	00f77863          	bgeu	a4,a5,8000049c <main+0x3f4>
80000490:	f9442783          	lw	a5,-108(s0)
80000494:	00378793          	addi	a5,a5,3
80000498:	f8f42a23          	sw	a5,-108(s0)
8000049c:	f9c42783          	lw	a5,-100(s0)
800004a0:	00078713          	mv	a4,a5
800004a4:	f9842783          	lw	a5,-104(s0)
800004a8:	00f76863          	bltu	a4,a5,800004b8 <main+0x410>
800004ac:	f9442783          	lw	a5,-108(s0)
800004b0:	ffd78793          	addi	a5,a5,-3
800004b4:	f8f42a23          	sw	a5,-108(s0)
800004b8:	e8042623          	sw	zero,-372(s0)
800004bc:	fc042423          	sw	zero,-56(s0)
800004c0:	0580006f          	j	80000518 <main+0x470>
800004c4:	e8c42703          	lw	a4,-372(s0)
800004c8:	fc842783          	lw	a5,-56(s0)
800004cc:	00f707b3          	add	a5,a4,a5
800004d0:	e8f42623          	sw	a5,-372(s0)
800004d4:	e8c42783          	lw	a5,-372(s0)
800004d8:	0017f793          	andi	a5,a5,1
800004dc:	00079e63          	bnez	a5,800004f8 <main+0x450>
800004e0:	fc842783          	lw	a5,-56(s0)
800004e4:	00179713          	slli	a4,a5,0x1
800004e8:	e8c42783          	lw	a5,-372(s0)
800004ec:	00f747b3          	xor	a5,a4,a5
800004f0:	e8f42623          	sw	a5,-372(s0)
800004f4:	0180006f          	j	8000050c <main+0x464>
800004f8:	fc842783          	lw	a5,-56(s0)
800004fc:	4017d713          	srai	a4,a5,0x1
80000500:	e8c42783          	lw	a5,-372(s0)
80000504:	00f707b3          	add	a5,a4,a5
80000508:	e8f42623          	sw	a5,-372(s0)
8000050c:	fc842783          	lw	a5,-56(s0)
80000510:	00178793          	addi	a5,a5,1
80000514:	fcf42423          	sw	a5,-56(s0)
80000518:	fc842703          	lw	a4,-56(s0)
8000051c:	00f00793          	li	a5,15
80000520:	fae7d2e3          	bge	a5,a4,800004c4 <main+0x41c>
80000524:	f9c42783          	lw	a5,-100(s0)
80000528:	f9842703          	lw	a4,-104(s0)
8000052c:	00070593          	mv	a1,a4
80000530:	00078513          	mv	a0,a5
80000534:	addff0ef          	jal	80000010 <call_target>
80000538:	fca42023          	sw	a0,-64(s0)
8000053c:	800007b7          	lui	a5,0x80000
80000540:	01078793          	addi	a5,a5,16 # 80000010 <call_target>
80000544:	faf42e23          	sw	a5,-68(s0)
80000548:	fbc42783          	lw	a5,-68(s0)
8000054c:	00700593          	li	a1,7
80000550:	00500513          	li	a0,5
80000554:	000780e7          	jalr	a5
80000558:	faa42c23          	sw	a0,-72(s0)
8000055c:	4d200513          	li	a0,1234
80000560:	b0dff0ef          	jal	8000006c <call_target2>
80000564:	faa42a23          	sw	a0,-76(s0)
80000568:	800007b7          	lui	a5,0x80000
8000056c:	06c78793          	addi	a5,a5,108 # 8000006c <call_target2>
80000570:	faf42823          	sw	a5,-80(s0)
80000574:	fb042783          	lw	a5,-80(s0)
80000578:	00200513          	li	a0,2
8000057c:	000780e7          	jalr	a5
80000580:	00050713          	mv	a4,a0
80000584:	fb442783          	lw	a5,-76(s0)
80000588:	00e787b3          	add	a5,a5,a4
8000058c:	faf42a23          	sw	a5,-76(s0)
80000590:	fedc17b7          	lui	a5,0xfedc1
80000594:	23478793          	addi	a5,a5,564 # fedc1234 <sink_i64+0x7edc022c>
80000598:	faf42623          	sw	a5,-84(s0)
8000059c:	fac42783          	lw	a5,-84(s0)
800005a0:	06478793          	addi	a5,a5,100
800005a4:	faf42423          	sw	a5,-88(s0)
800005a8:	f9c42783          	lw	a5,-100(s0)
800005ac:	fff7c793          	not	a5,a5
800005b0:	f8f42a23          	sw	a5,-108(s0)
800005b4:	f9842783          	lw	a5,-104(s0)
800005b8:	f9c42783          	lw	a5,-100(s0)
800005bc:	f9842703          	lw	a4,-104(s0)
800005c0:	f9c42783          	lw	a5,-100(s0)
800005c4:	00f747b3          	xor	a5,a4,a5
800005c8:	f8f42a23          	sw	a5,-108(s0)
800005cc:	f9442783          	lw	a5,-108(s0)
800005d0:	00078713          	mv	a4,a5
800005d4:	cafec7b7          	lui	a5,0xcafec
800005d8:	abe78793          	addi	a5,a5,-1346 # cafebabe <sink_i64+0x4afeaab6>
800005dc:	00f747b3          	xor	a5,a4,a5
800005e0:	f8f42a23          	sw	a5,-108(s0)
800005e4:	deadc7b7          	lui	a5,0xdeadc
800005e8:	eef78793          	addi	a5,a5,-273 # deadbeef <sink_i64+0x5eadaee7>
800005ec:	e6f42823          	sw	a5,-400(s0)
800005f0:	e6c40793          	addi	a5,s0,-404
800005f4:	00478793          	addi	a5,a5,4
800005f8:	faf42223          	sw	a5,-92(s0)
800005fc:	fa442783          	lw	a5,-92(s0)
80000600:	0007a783          	lw	a5,0(a5)
80000604:	f8f42a23          	sw	a5,-108(s0)
80000608:	00100793          	li	a5,1
8000060c:	fcf42223          	sw	a5,-60(s0)
80000610:	0600006f          	j	80000670 <main+0x5c8>
80000614:	f9042783          	lw	a5,-112(s0)
80000618:	fc442703          	lw	a4,-60(s0)
8000061c:	00f707b3          	add	a5,a4,a5
80000620:	faf42023          	sw	a5,-96(s0)
80000624:	f8c42703          	lw	a4,-116(s0)
80000628:	fa042783          	lw	a5,-96(s0)
8000062c:	02f747b3          	div	a5,a4,a5
80000630:	e6f42023          	sw	a5,-416(s0)
80000634:	f8c42703          	lw	a4,-116(s0)
80000638:	fa042783          	lw	a5,-96(s0)
8000063c:	02f767b3          	rem	a5,a4,a5
80000640:	e4f42e23          	sw	a5,-420(s0)
80000644:	e6042703          	lw	a4,-416(s0)
80000648:	e5c42783          	lw	a5,-420(s0)
8000064c:	00f70733          	add	a4,a4,a5
80000650:	800017b7          	lui	a5,0x80001
80000654:	0007a783          	lw	a5,0(a5) # 80001000 <sink_i32>
80000658:	00f70733          	add	a4,a4,a5
8000065c:	800017b7          	lui	a5,0x80001
80000660:	00e7a023          	sw	a4,0(a5) # 80001000 <sink_i32>
80000664:	fc442783          	lw	a5,-60(s0)
80000668:	00178793          	addi	a5,a5,1
8000066c:	fcf42223          	sw	a5,-60(s0)
80000670:	fc442703          	lw	a4,-60(s0)
80000674:	00a00793          	li	a5,10
80000678:	f8e7dee3          	bge	a5,a4,80000614 <main+0x56c>
8000067c:	f9442703          	lw	a4,-108(s0)
80000680:	f8842783          	lw	a5,-120(s0)
80000684:	00f70733          	add	a4,a4,a5
80000688:	f7c42783          	lw	a5,-132(s0)
8000068c:	00f70733          	add	a4,a4,a5
80000690:	f7442783          	lw	a5,-140(s0)
80000694:	00f70733          	add	a4,a4,a5
80000698:	e8c42783          	lw	a5,-372(s0)
8000069c:	00f707b3          	add	a5,a4,a5
800006a0:	e6f42423          	sw	a5,-408(s0)
800006a4:	e6842703          	lw	a4,-408(s0)
800006a8:	800017b7          	lui	a5,0x80001
800006ac:	00e7a023          	sw	a4,0(a5) # 80001000 <sink_i32>
800006b0:	800017b7          	lui	a5,0x80001
800006b4:	0007a783          	lw	a5,0(a5) # 80001000 <sink_i32>
800006b8:	e6f42223          	sw	a5,-412(s0)
800006bc:	f8042703          	lw	a4,-128(s0)
800006c0:	fa842783          	lw	a5,-88(s0)
800006c4:	00f70733          	add	a4,a4,a5
800006c8:	f7842783          	lw	a5,-136(s0)
800006cc:	00f70733          	add	a4,a4,a5
800006d0:	f7042783          	lw	a5,-144(s0)
800006d4:	00f70733          	add	a4,a4,a5
800006d8:	800017b7          	lui	a5,0x80001
800006dc:	00e7a223          	sw	a4,4(a5) # 80001004 <sink_u32>
800006e0:	f9042783          	lw	a5,-112(s0)
800006e4:	00078a13          	mv	s4,a5
800006e8:	41f7d793          	srai	a5,a5,0x1f
800006ec:	00078a93          	mv	s5,a5
800006f0:	f8c42783          	lw	a5,-116(s0)
800006f4:	00078913          	mv	s2,a5
800006f8:	41f7d793          	srai	a5,a5,0x1f
800006fc:	00078993          	mv	s3,a5
80000700:	032a8733          	mul	a4,s5,s2
80000704:	034987b3          	mul	a5,s3,s4
80000708:	00f707b3          	add	a5,a4,a5
8000070c:	032a0733          	mul	a4,s4,s2
80000710:	032a3bb3          	mulhu	s7,s4,s2
80000714:	00070b13          	mv	s6,a4
80000718:	017787b3          	add	a5,a5,s7
8000071c:	00078b93          	mv	s7,a5
80000720:	800017b7          	lui	a5,0x80001
80000724:	0167a423          	sw	s6,8(a5) # 80001008 <sink_i64>
80000728:	0177a623          	sw	s7,12(a5)
8000072c:	e6442783          	lw	a5,-412(s0)
80000730:	80001737          	lui	a4,0x80001
80000734:	00472703          	lw	a4,4(a4) # 80001004 <sink_u32>
80000738:	00e7c6b3          	xor	a3,a5,a4
8000073c:	800017b7          	lui	a5,0x80001
80000740:	0087a703          	lw	a4,8(a5) # 80001008 <sink_i64>
80000744:	00c7a783          	lw	a5,12(a5)
80000748:	00070793          	mv	a5,a4
8000074c:	00f6c7b3          	xor	a5,a3,a5
80000750:	00078513          	mv	a0,a5
80000754:	1ac12083          	lw	ra,428(sp)
80000758:	1a812403          	lw	s0,424(sp)
8000075c:	1a412483          	lw	s1,420(sp)
80000760:	1a012903          	lw	s2,416(sp)
80000764:	19c12983          	lw	s3,412(sp)
80000768:	19812a03          	lw	s4,408(sp)
8000076c:	19412a83          	lw	s5,404(sp)
80000770:	19012b03          	lw	s6,400(sp)
80000774:	18c12b83          	lw	s7,396(sp)
80000778:	18812c03          	lw	s8,392(sp)
8000077c:	18412c83          	lw	s9,388(sp)
80000780:	1b010113          	addi	sp,sp,432
80000784:	00008067          	ret
